; Function Attrs: mustprogress uwtable
define hidden void @_ZNK3nla6basics19get_non_strict_signEjRi(ptr noundef nonnull align 8 dereferenceable(184) %this, i32 noundef %j, ptr nocapture noundef nonnull align 4 dereferenceable(4) %sign) local_unnamed_addr #3 align 2 personality ptr @__gxx_personality_v0 {
invoke.cont:
  %v = alloca %class.rational, align 8
  call void @_ZNK3nla6common3valEj(ptr nonnull sret(%class.rational) align 8 %v, ptr noundef nonnull align 8 dereferenceable(184) %this, i32 noundef %j)
  %0 = load i32, ptr %v, align 8
  %cmp.i.i.i.i = icmp eq i32 %0, 0
  br i1 %cmp.i.i.i.i, label %if.then, label %invoke.cont4

if.then:                                          ; preds = %invoke.cont
  %call3 = invoke noundef zeroext i1 @_ZNK3nla6basics35try_get_non_strict_sign_from_boundsEjRi(ptr noundef nonnull align 8 dereferenceable(184) %this, i32 noundef %j, ptr noundef nonnull align 4 dereferenceable(4) %sign)
          to label %if.end unwind label %lpad

lpad:                                             ; preds = %if.then
  %1 = landingpad { ptr, i32 }
          cleanup
  call void @_ZN8rationalD2Ev(ptr noundef nonnull align 8 dereferenceable(32) %v) #17
  resume { ptr, i32 } %1

invoke.cont4:                                     ; preds = %invoke.cont
  %.lobit.i = ashr i32 %0, 31
  %cmp.i.i.i.i.inv.i = icmp slt i32 %0, 1
  %cond2.i = select i1 %cmp.i.i.i.i.inv.i, i32 %.lobit.i, i32 1
  %2 = load i32, ptr %sign, align 4
  %mul = mul nsw i32 %2, %cond2.i
  store i32 %mul, ptr %sign, align 4
  br label %if.end

if.end:                                           ; preds = %if.then, %invoke.cont4
  %3 = load ptr, ptr @_ZN8rational13g_mpq_managerE, align 8
  invoke void @_ZN11mpz_managerILb1EE3delEPS0_R3mpz(ptr noundef %3, ptr noundef nonnull align 8 dereferenceable(16) %v)
          to label %.noexc.i unwind label %terminate.lpad.i

.noexc.i:                                         ; preds = %if.end
  %m_den.i.i = getelementptr inbounds i8, ptr %v, i64 16
  invoke void @_ZN11mpz_managerILb1EE3delEPS0_R3mpz(ptr noundef %3, ptr noundef nonnull align 8 dereferenceable(16) %m_den.i.i)
          to label %_ZN8rationalD2Ev.exit unwind label %terminate.lpad.i

terminate.lpad.i:                                 ; preds = %.noexc.i, %if.end
  %4 = landingpad { ptr, i32 }
          catch ptr null
  %5 = extractvalue { ptr, i32 } %4, 0
  call void @__clang_call_terminate(ptr %5) #16
  unreachable

_ZN8rationalD2Ev.exit:                            ; preds = %.noexc.i
  ret void
}